; Function Attrs: mustprogress uwtable
define void @_ZN6icu_756LocaleC2ERKS0_(ptr noundef nonnull align 8 dereferenceable(217) %this, ptr noundef nonnull align 8 dereferenceable(217) %other) unnamed_addr #1 align 2 personality ptr @__gxx_personality_v0 {
entry:
  store ptr getelementptr inbounds ({ [5 x ptr] }, ptr @_ZTVN6icu_756LocaleE, i64 0, i32 0, i64 2), ptr %this, align 8
  %fullName = getelementptr inbounds i8, ptr %this, i64 40
  %fullNameBuffer = getelementptr inbounds i8, ptr %this, i64 48
  store ptr %fullNameBuffer, ptr %fullName, align 8
  %baseName = getelementptr inbounds i8, ptr %this, i64 208
  store ptr null, ptr %baseName, align 8
  %call = invoke noundef nonnull align 8 dereferenceable(217) ptr @_ZN6icu_756LocaleaSERKS0_(ptr noundef nonnull align 8 dereferenceable(217) %this, ptr noundef nonnull align 8 dereferenceable(217) %other)
          to label %invoke.cont unwind label %lpad

invoke.cont:                                      ; preds = %entry
  ret void

lpad:                                             ; preds = %entry
  %0 = landingpad { ptr, i32 }
          cleanup
  tail call void @_ZN6icu_757UObjectD2Ev(ptr noundef nonnull align 8 dereferenceable(8) %this) #20
  resume { ptr, i32 } %0
}